target datalayout = "e-m:e-p270:32:32-p271:32:32-p272:64:64-i64:64-i128:128-f80:128-n8:16:32:64-S128"
target triple = "x86_64-pc-linux-gnu"

%struct.CVodeMemRec = type { double, ptr, ptr, i32, i32, i32, double, double, ptr, i32, ptr, ptr, i32, ptr, i32, i32, double, double, ptr, i32, i32, i32, ptr, ptr, ptr, i32, i32, ptr, ptr, ptr, i32, double, i32, i32, double, ptr, ptr, i32, ptr, ptr, i32, i32, i32, double, ptr, ptr, [13 x ptr], ptr, ptr, ptr, ptr, ptr, [13 x ptr], ptr, ptr, ptr, ptr, [13 x ptr], ptr, ptr, ptr, ptr, ptr, i32, [13 x ptr], ptr, ptr, ptr, ptr, ptr, i32, double, i32, i32, i32, i32, i32, double, double, double, double, double, double, double, double, [14 x double], [6 x double], [13 x double], double, double, double, double, double, double, double, double, double, double, double, i32, ptr, i32, i64, i32, i32, i32, i32, i32, double, double, double, i64, i64, i64, i64, i64, i64, i64, i64, i64, ptr, i64, i64, ptr, i64, i64, i64, i64, i64, i64, i32, i64, i64, i64, i64, i64, i64, double, double, double, ptr, ptr, ptr, ptr, ptr, i32, i32, i64, double, double, double, i32, double, i32, i32, i32, i32, i32, i32, i32, i32, i32, i32, i32, i32, i32, i32, i32, i32, ptr, ptr, ptr, i32, [6 x [4 x double]], i32, i64, ptr, i32, ptr, ptr, double, double, double, ptr, ptr, ptr, double, double, i32, i32, i64, ptr, i32, i32, ptr, i32 }

@.str = private unnamed_addr constant [7 x i8] c"CVODES\00", align 1
@.str.2 = private unnamed_addr constant [26 x i8] c"cvode_mem = NULL illegal.\00", align 1
@.str.17 = private unnamed_addr constant [44 x i8] c"Inconsistent step size limits: hmin > hmax.\00", align 1
@.str.18 = private unnamed_addr constant [16 x i8] c"CVodeSetMaxStep\00", align 1
@.str.19 = private unnamed_addr constant [18 x i8] c"hmax < 0 illegal.\00", align 1

; Function Attrs: nounwind uwtable
define i32 @CVodeSetMaxStep(ptr noundef %0, double noundef %1) #0 {
  %3 = alloca i32, align 4
  %4 = alloca ptr, align 8
  %5 = alloca double, align 8
  %6 = alloca double, align 8
  %7 = alloca ptr, align 8
  %8 = alloca i32, align 4
  store ptr %0, ptr %4, align 8, !tbaa !3
  store double %1, ptr %5, align 8, !tbaa !36
  call void @llvm.lifetime.start.p0(i64 8, ptr %6) #5
  call void @llvm.lifetime.start.p0(i64 8, ptr %7) #5
  %9 = load ptr, ptr %4, align 8, !tbaa !3
  %10 = icmp eq ptr %9, null
  br i1 %10, label %11, label %12

11:                                               ; preds = %2
  call void (ptr, i32, ptr, ptr, ptr, ...) @cvProcessError(ptr noundef null, i32 noundef -21, ptr noundef @.str, ptr noundef @.str.18, ptr noundef @.str.2)
  store i32 -21, ptr %3, align 4
  store i32 1, ptr %8, align 4
  br label %39

12:                                               ; preds = %2
  %13 = load ptr, ptr %4, align 8, !tbaa !3
  store ptr %13, ptr %7, align 8, !tbaa !7
  %14 = load double, ptr %5, align 8, !tbaa !36
  %15 = fcmp olt double %14, 0.000000e+00
  br i1 %15, label %16, label %18

16:                                               ; preds = %12
  %17 = load ptr, ptr %7, align 8, !tbaa !7
  call void (ptr, i32, ptr, ptr, ptr, ...) @cvProcessError(ptr noundef %17, i32 noundef -22, ptr noundef @.str, ptr noundef @.str.18, ptr noundef @.str.19)
  store i32 -22, ptr %3, align 4
  store i32 1, ptr %8, align 4
  br label %39

18:                                               ; preds = %12
  %19 = load double, ptr %5, align 8, !tbaa !36
  %20 = fcmp oeq double %19, 0.000000e+00
  br i1 %20, label %21, label %24

21:                                               ; preds = %18
  %22 = load ptr, ptr %7, align 8, !tbaa !7
  %23 = getelementptr inbounds nuw %struct.CVodeMemRec, ptr %22, i32 0, i32 109
  store double 0.000000e+00, ptr %23, align 8, !tbaa !39
  store i32 0, ptr %3, align 4
  store i32 1, ptr %8, align 4
  br label %39

24:                                               ; preds = %18
  %25 = load double, ptr %5, align 8, !tbaa !36
  %26 = fdiv double 1.000000e+00, %25
  store double %26, ptr %6, align 8, !tbaa !36
  %27 = load double, ptr %6, align 8, !tbaa !36
  %28 = load ptr, ptr %7, align 8, !tbaa !7
  %29 = getelementptr inbounds nuw %struct.CVodeMemRec, ptr %28, i32 0, i32 108
  %30 = load double, ptr %29, align 8, !tbaa !38
  %31 = fmul double %27, %30
  %32 = fcmp ogt double %31, 1.000000e+00
  br i1 %32, label %33, label %35

33:                                               ; preds = %24
  %34 = load ptr, ptr %7, align 8, !tbaa !7
  call void (ptr, i32, ptr, ptr, ptr, ...) @cvProcessError(ptr noundef %34, i32 noundef -22, ptr noundef @.str, ptr noundef @.str.18, ptr noundef @.str.17)
  store i32 -22, ptr %3, align 4
  store i32 1, ptr %8, align 4
  br label %39

35:                                               ; preds = %24
  %36 = load double, ptr %6, align 8, !tbaa !36
  %37 = load ptr, ptr %7, align 8, !tbaa !7
  %38 = getelementptr inbounds nuw %struct.CVodeMemRec, ptr %37, i32 0, i32 109
  store double %36, ptr %38, align 8, !tbaa !39
  store i32 0, ptr %3, align 4
  store i32 1, ptr %8, align 4
  br label %39

39:                                               ; preds = %35, %33, %21, %16, %11
  call void @llvm.lifetime.end.p0(i64 8, ptr %7) #5
  call void @llvm.lifetime.end.p0(i64 8, ptr %6) #5
  %40 = load i32, ptr %3, align 4
  ret i32 %40
}